target datalayout = "e-m:e-p270:32:32-p271:32:32-p272:64:64-i64:64-i128:128-f80:128-n8:16:32:64-S128"
target triple = "x86_64-pc-linux-gnu"

%"class.open3d::pipelines::integration::ScalableTSDFVolume" = type { %"class.open3d::pipelines::integration::TSDFVolume.base", i32, double, i32, %"class.std::unordered_map" }
%"class.open3d::pipelines::integration::TSDFVolume.base" = type <{ ptr, double, double, i32 }>
%"class.std::unordered_map" = type { %"class.std::_Hashtable" }
%"class.std::_Hashtable" = type { ptr, i64, %"struct.std::__detail::_Hash_node_base", i64, %"struct.std::__detail::_Prime_rehash_policy", ptr }
%"struct.std::__detail::_Hash_node_base" = type { ptr }
%"struct.std::__detail::_Prime_rehash_policy" = type { float, i64 }
%"class.open3d::pipelines::integration::TSDFVolume" = type <{ ptr, double, double, i32, [4 x i8] }>

; Function Attrs: alwaysinline mustprogress nounwind ssp uwtable
define linkonce_odr void @_ZNSt15__new_allocatorINSt8__detail10_Hash_nodeISt4pairIKN5Eigen6MatrixIiLi3ELi1ELi0ELi3ELi1EEEN6open3d9pipelines11integration18ScalableTSDFVolume10VolumeUnitEELb1EEEEC2Ev(ptr noundef nonnull align 1 dereferenceable(1) %0) unnamed_addr #6 comdat align 2 {
  %2 = alloca ptr, align 8
  store ptr %0, ptr %2, align 8, !tbaa !179
  ret void
}

; Function Attrs: alwaysinline mustprogress nounwind ssp uwtable
define linkonce_odr void @_ZNSaINSt8__detail10_Hash_nodeISt4pairIKN5Eigen6MatrixIiLi3ELi1ELi0ELi3ELi1EEEN6open3d9pipelines11integration18ScalableTSDFVolume10VolumeUnitEELb1EEEEC2Ev(ptr noundef nonnull align 1 dereferenceable(1) %0) unnamed_addr #6 comdat align 2 {
  %2 = alloca ptr, align 8
  store ptr %0, ptr %2, align 8, !tbaa !177
  %3 = load ptr, ptr %2, align 8
  call void @_ZNSt15__new_allocatorINSt8__detail10_Hash_nodeISt4pairIKN5Eigen6MatrixIiLi3ELi1ELi0ELi3ELi1EEEN6open3d9pipelines11integration18ScalableTSDFVolume10VolumeUnitEELb1EEEEC2Ev(ptr noundef nonnull align 1 dereferenceable(1) %3) #31
  ret void
}

; Function Attrs: mustprogress nounwind ssp uwtable
define linkonce_odr void @_ZNSt8__detail21_Hashtable_ebo_helperILi1EN6open3d7utility10hash_eigenIN5Eigen6MatrixIiLi3ELi1ELi0ELi3ELi1EEEEELb1EEC2Ev(ptr noundef nonnull align 1 dereferenceable(1) %0) unnamed_addr #0 comdat align 2 {
  %2 = alloca ptr, align 8
  store ptr %0, ptr %2, align 8, !tbaa !173
  ret void
}

; Function Attrs: mustprogress nounwind ssp uwtable
define linkonce_odr void @_ZNSt8__detail21_Hashtable_ebo_helperILi0ESaINS_10_Hash_nodeISt4pairIKN5Eigen6MatrixIiLi3ELi1ELi0ELi3ELi1EEEN6open3d9pipelines11integration18ScalableTSDFVolume10VolumeUnitEELb1EEEELb1EEC2Ev(ptr noundef nonnull align 1 dereferenceable(1) %0) unnamed_addr #0 comdat align 2 {
  %2 = alloca ptr, align 8
  store ptr %0, ptr %2, align 8, !tbaa !175
  %3 = load ptr, ptr %2, align 8
  call void @_ZNSaINSt8__detail10_Hash_nodeISt4pairIKN5Eigen6MatrixIiLi3ELi1ELi0ELi3ELi1EEEN6open3d9pipelines11integration18ScalableTSDFVolume10VolumeUnitEELb1EEEEC2Ev(ptr noundef nonnull align 1 dereferenceable(1) %3) #31
  ret void
}

; Function Attrs: mustprogress nounwind ssp uwtable
define linkonce_odr void @_ZNSt8__detail21_Hashtable_ebo_helperILi0ESt8equal_toIN5Eigen6MatrixIiLi3ELi1ELi0ELi3ELi1EEEELb1EEC2Ev(ptr noundef nonnull align 1 dereferenceable(1) %0) unnamed_addr #0 comdat align 2 {
  %2 = alloca ptr, align 8
  store ptr %0, ptr %2, align 8, !tbaa !171
  ret void
}

; Function Attrs: mustprogress nounwind ssp uwtable
define linkonce_odr void @_ZNSt8__detail15_Hash_code_baseIN5Eigen6MatrixIiLi3ELi1ELi0ELi3ELi1EEESt4pairIKS3_N6open3d9pipelines11integration18ScalableTSDFVolume10VolumeUnitEENS_10_Select1stENS6_7utility10hash_eigenIS3_EENS_18_Mod_range_hashingENS_20_Default_ranged_hashELb1EEC2Ev(ptr noundef nonnull align 1 dereferenceable(1) %0) unnamed_addr #0 comdat align 2 {
  %2 = alloca ptr, align 8
  store ptr %0, ptr %2, align 8, !tbaa !169
  %3 = load ptr, ptr %2, align 8
  call void @_ZNSt8__detail21_Hashtable_ebo_helperILi1EN6open3d7utility10hash_eigenIN5Eigen6MatrixIiLi3ELi1ELi0ELi3ELi1EEEEELb1EEC2Ev(ptr noundef nonnull align 1 dereferenceable(1) %3) #31
  ret void
}

; Function Attrs: mustprogress nounwind ssp uwtable
define linkonce_odr void @_ZNSt8__detail20_Prime_rehash_policyC2Ef(ptr noundef nonnull align 8 dereferenceable(16) %0, float noundef %1) unnamed_addr #0 comdat align 2 {
  %3 = alloca ptr, align 8
  %4 = alloca float, align 4
  store ptr %0, ptr %3, align 8, !tbaa !165
  store float %1, ptr %4, align 4, !tbaa !70
  %5 = load ptr, ptr %3, align 8
  %6 = getelementptr inbounds nuw %"struct.std::__detail::_Prime_rehash_policy", ptr %5, i32 0, i32 0
  %7 = load float, ptr %4, align 4, !tbaa !70
  store float %7, ptr %6, align 8, !tbaa !167
  %8 = getelementptr inbounds nuw %"struct.std::__detail::_Prime_rehash_policy", ptr %5, i32 0, i32 1
  store i64 0, ptr %8, align 8, !tbaa !168
  ret void
}

; Function Attrs: mustprogress nounwind ssp uwtable
define linkonce_odr void @_ZNSt8__detail15_Hash_node_baseC2Ev(ptr noundef nonnull align 8 dereferenceable(8) %0) unnamed_addr #0 comdat align 2 {
  %2 = alloca ptr, align 8
  store ptr %0, ptr %2, align 8, !tbaa !163
  %3 = load ptr, ptr %2, align 8
  %4 = getelementptr inbounds nuw %"struct.std::__detail::_Hash_node_base", ptr %3, i32 0, i32 0
  store ptr null, ptr %4, align 8, !tbaa !164
  ret void
}

; Function Attrs: mustprogress nounwind ssp uwtable
define linkonce_odr void @_ZNSt8__detail16_Hashtable_allocISaINS_10_Hash_nodeISt4pairIKN5Eigen6MatrixIiLi3ELi1ELi0ELi3ELi1EEEN6open3d9pipelines11integration18ScalableTSDFVolume10VolumeUnitEELb1EEEEEC2Ev(ptr noundef nonnull align 1 dereferenceable(1) %0) unnamed_addr #0 comdat align 2 {
  %2 = alloca ptr, align 8
  store ptr %0, ptr %2, align 8, !tbaa !161
  %3 = load ptr, ptr %2, align 8
  call void @_ZNSt8__detail21_Hashtable_ebo_helperILi0ESaINS_10_Hash_nodeISt4pairIKN5Eigen6MatrixIiLi3ELi1ELi0ELi3ELi1EEEN6open3d9pipelines11integration18ScalableTSDFVolume10VolumeUnitEELb1EEEELb1EEC2Ev(ptr noundef nonnull align 1 dereferenceable(1) %3) #31
  ret void
}

; Function Attrs: mustprogress nounwind ssp uwtable
define linkonce_odr void @_ZNSt8__detail15_Hashtable_baseIN5Eigen6MatrixIiLi3ELi1ELi0ELi3ELi1EEESt4pairIKS3_N6open3d9pipelines11integration18ScalableTSDFVolume10VolumeUnitEENS_10_Select1stESt8equal_toIS3_ENS6_7utility10hash_eigenIS3_EENS_18_Mod_range_hashingENS_20_Default_ranged_hashENS_17_Hashtable_traitsILb1ELb0ELb1EEEEC2Ev(ptr noundef nonnull align 1 dereferenceable(1) %0) unnamed_addr #0 comdat align 2 {
  %2 = alloca ptr, align 8
  store ptr %0, ptr %2, align 8, !tbaa !159
  %3 = load ptr, ptr %2, align 8
  call void @_ZNSt8__detail15_Hash_code_baseIN5Eigen6MatrixIiLi3ELi1ELi0ELi3ELi1EEESt4pairIKS3_N6open3d9pipelines11integration18ScalableTSDFVolume10VolumeUnitEENS_10_Select1stENS6_7utility10hash_eigenIS3_EENS_18_Mod_range_hashingENS_20_Default_ranged_hashELb1EEC2Ev(ptr noundef nonnull align 1 dereferenceable(1) %3) #31
  call void @_ZNSt8__detail21_Hashtable_ebo_helperILi0ESt8equal_toIN5Eigen6MatrixIiLi3ELi1ELi0ELi3ELi1EEEELb1EEC2Ev(ptr noundef nonnull align 1 dereferenceable(1) %3) #31
  ret void
}

; Function Attrs: mustprogress nounwind ssp uwtable
define linkonce_odr void @_ZNSt10_HashtableIN5Eigen6MatrixIiLi3ELi1ELi0ELi3ELi1EEESt4pairIKS2_N6open3d9pipelines11integration18ScalableTSDFVolume10VolumeUnitEESaISA_ENSt8__detail10_Select1stESt8equal_toIS2_ENS5_7utility10hash_eigenIS2_EENSC_18_Mod_range_hashingENSC_20_Default_ranged_hashENSC_20_Prime_rehash_policyENSC_17_Hashtable_traitsILb1ELb0ELb1EEEEC2Ev(ptr noundef nonnull align 8 dereferenceable(56) %0) unnamed_addr #0 comdat align 2 {
  %2 = alloca ptr, align 8
  store ptr %0, ptr %2, align 8, !tbaa !153
  %3 = load ptr, ptr %2, align 8
  call void @_ZNSt8__detail15_Hashtable_baseIN5Eigen6MatrixIiLi3ELi1ELi0ELi3ELi1EEESt4pairIKS3_N6open3d9pipelines11integration18ScalableTSDFVolume10VolumeUnitEENS_10_Select1stESt8equal_toIS3_ENS6_7utility10hash_eigenIS3_EENS_18_Mod_range_hashingENS_20_Default_ranged_hashENS_17_Hashtable_traitsILb1ELb0ELb1EEEEC2Ev(ptr noundef nonnull align 1 dereferenceable(1) %3) #31
  call void @_ZNSt8__detail16_Hashtable_allocISaINS_10_Hash_nodeISt4pairIKN5Eigen6MatrixIiLi3ELi1ELi0ELi3ELi1EEEN6open3d9pipelines11integration18ScalableTSDFVolume10VolumeUnitEELb1EEEEEC2Ev(ptr noundef nonnull align 1 dereferenceable(1) %3) #31
  %4 = getelementptr inbounds nuw %"class.std::_Hashtable", ptr %3, i32 0, i32 0
  %5 = getelementptr inbounds nuw %"class.std::_Hashtable", ptr %3, i32 0, i32 5
  store ptr %5, ptr %4, align 8, !tbaa !155
  %6 = getelementptr inbounds nuw %"class.std::_Hashtable", ptr %3, i32 0, i32 1
  store i64 1, ptr %6, align 8, !tbaa !156
  %7 = getelementptr inbounds nuw %"class.std::_Hashtable", ptr %3, i32 0, i32 2
  call void @_ZNSt8__detail15_Hash_node_baseC2Ev(ptr noundef nonnull align 8 dereferenceable(8) %7) #31
  %8 = getelementptr inbounds nuw %"class.std::_Hashtable", ptr %3, i32 0, i32 3
  store i64 0, ptr %8, align 8, !tbaa !157
  %9 = getelementptr inbounds nuw %"class.std::_Hashtable", ptr %3, i32 0, i32 4
  call void @_ZNSt8__detail20_Prime_rehash_policyC2Ef(ptr noundef nonnull align 8 dereferenceable(16) %9, float noundef 1.000000e+00) #31
  %10 = getelementptr inbounds nuw %"class.std::_Hashtable", ptr %3, i32 0, i32 5
  store ptr null, ptr %10, align 8, !tbaa !158
  ret void
}

; Function Attrs: mustprogress nounwind ssp uwtable
define linkonce_odr void @_ZNSt13unordered_mapIN5Eigen6MatrixIiLi3ELi1ELi0ELi3ELi1EEEN6open3d9pipelines11integration18ScalableTSDFVolume10VolumeUnitENS3_7utility10hash_eigenIS2_EESt8equal_toIS2_ESaISt4pairIKS2_S7_EEEC2Ev(ptr noundef nonnull align 8 dereferenceable(56) %0) unnamed_addr #0 comdat align 2 {
  %2 = alloca ptr, align 8
  store ptr %0, ptr %2, align 8, !tbaa !71
  %3 = load ptr, ptr %2, align 8
  %4 = getelementptr inbounds nuw %"class.std::unordered_map", ptr %3, i32 0, i32 0
  call void @_ZNSt10_HashtableIN5Eigen6MatrixIiLi3ELi1ELi0ELi3ELi1EEESt4pairIKS2_N6open3d9pipelines11integration18ScalableTSDFVolume10VolumeUnitEESaISA_ENSt8__detail10_Select1stESt8equal_toIS2_ENS5_7utility10hash_eigenIS2_EENSC_18_Mod_range_hashingENSC_20_Default_ranged_hashENSC_20_Prime_rehash_policyENSC_17_Hashtable_traitsILb1ELb0ELb1EEEEC2Ev(ptr noundef nonnull align 8 dereferenceable(56) %4) #31
  ret void
}

; Function Attrs: mustprogress nounwind ssp uwtable
define linkonce_odr void @_ZN6open3d9pipelines11integration10TSDFVolumeC2EddNS1_19TSDFVolumeColorTypeE(ptr noundef nonnull align 8 dereferenceable(28) %0, double noundef %1, double noundef %2, i32 noundef %3) unnamed_addr #0 comdat align 2 {
  %5 = alloca ptr, align 8
  %6 = alloca double, align 8
  %7 = alloca double, align 8
  %8 = alloca i32, align 4
  store ptr %0, ptr %5, align 8, !tbaa !150
  store double %1, ptr %6, align 8, !tbaa !69
  store double %2, ptr %7, align 8, !tbaa !69
  store i32 %3, ptr %8, align 4, !tbaa !146
  %9 = load ptr, ptr %5, align 8
  store ptr getelementptr inbounds inrange(-16, 48) ({ [8 x ptr] }, ptr @_ZTVN6open3d9pipelines11integration10TSDFVolumeE, i32 0, i32 0, i32 2), ptr %9, align 8, !tbaa !147
  %10 = getelementptr inbounds nuw %"class.open3d::pipelines::integration::TSDFVolume", ptr %9, i32 0, i32 1
  %11 = load double, ptr %6, align 8, !tbaa !69
  store double %11, ptr %10, align 8, !tbaa !68
  %12 = getelementptr inbounds nuw %"class.open3d::pipelines::integration::TSDFVolume", ptr %9, i32 0, i32 2
  %13 = load double, ptr %7, align 8, !tbaa !69
  store double %13, ptr %12, align 8, !tbaa !152
  %14 = getelementptr inbounds nuw %"class.open3d::pipelines::integration::TSDFVolume", ptr %9, i32 0, i32 3
  %15 = load i32, ptr %8, align 4, !tbaa !146
  store i32 %15, ptr %14, align 8, !tbaa !31
  ret void
}

; Function Attrs: mustprogress ssp uwtable
define void @_ZN6open3d9pipelines11integration18ScalableTSDFVolumeC2EddNS1_19TSDFVolumeColorTypeEii(ptr noundef nonnull align 8 dereferenceable(104) %0, double noundef %1, double noundef %2, i32 noundef %3, i32 noundef %4, i32 noundef %5) unnamed_addr #1 align 2 {
  %7 = alloca ptr, align 8
  %8 = alloca double, align 8
  %9 = alloca double, align 8
  %10 = alloca i32, align 4
  %11 = alloca i32, align 4
  %12 = alloca i32, align 4
  store ptr %0, ptr %7, align 8, !tbaa !4
  store double %1, ptr %8, align 8, !tbaa !69
  store double %2, ptr %9, align 8, !tbaa !69
  store i32 %3, ptr %10, align 4, !tbaa !146
  store i32 %4, ptr %11, align 4, !tbaa !63
  store i32 %5, ptr %12, align 4, !tbaa !63
  %13 = load ptr, ptr %7, align 8
  %14 = load double, ptr %8, align 8, !tbaa !69
  %15 = load double, ptr %9, align 8, !tbaa !69
  %16 = load i32, ptr %10, align 4, !tbaa !146
  call void @_ZN6open3d9pipelines11integration10TSDFVolumeC2EddNS1_19TSDFVolumeColorTypeE(ptr noundef nonnull align 8 dereferenceable(28) %13, double noundef %14, double noundef %15, i32 noundef %16)
  store ptr getelementptr inbounds inrange(-16, 48) ({ [8 x ptr] }, ptr @_ZTVN6open3d9pipelines11integration18ScalableTSDFVolumeE, i32 0, i32 0, i32 2), ptr %13, align 8, !tbaa !147
  %17 = getelementptr inbounds nuw %"class.open3d::pipelines::integration::ScalableTSDFVolume", ptr %13, i32 0, i32 1
  %18 = load i32, ptr %11, align 4, !tbaa !63
  store i32 %18, ptr %17, align 4, !tbaa !102
  %19 = getelementptr inbounds nuw %"class.open3d::pipelines::integration::ScalableTSDFVolume", ptr %13, i32 0, i32 2
  %20 = load double, ptr %8, align 8, !tbaa !69
  %21 = load i32, ptr %11, align 4, !tbaa !63
  %22 = sitofp i32 %21 to double
  %23 = fmul double %20, %22
  store double %23, ptr %19, align 8, !tbaa !149
  %24 = getelementptr inbounds nuw %"class.open3d::pipelines::integration::ScalableTSDFVolume", ptr %13, i32 0, i32 3
  %25 = load i32, ptr %12, align 4, !tbaa !63
  store i32 %25, ptr %24, align 8, !tbaa !49
  %26 = getelementptr inbounds nuw %"class.open3d::pipelines::integration::ScalableTSDFVolume", ptr %13, i32 0, i32 4
  call void @_ZNSt13unordered_mapIN5Eigen6MatrixIiLi3ELi1ELi0ELi3ELi1EEEN6open3d9pipelines11integration18ScalableTSDFVolume10VolumeUnitENS3_7utility10hash_eigenIS2_EESt8equal_toIS2_ESaISt4pairIKS2_S7_EEEC2Ev(ptr noundef nonnull align 8 dereferenceable(56) %26) #31
  ret void
}