; Function Attrs: mustprogress nofree norecurse nosync nounwind ssp willreturn memory(argmem: write) uwtable
define void @_ZN6open3d9pipelines11integration18ScalableTSDFVolumeC2EddNS1_19TSDFVolumeColorTypeEii(ptr noundef nonnull align 8 dereferenceable(104) initializes((0, 44)) %0, double noundef %1, double noundef %2, i32 noundef %3, i32 noundef %4, i32 noundef %5) unnamed_addr #3 align 2 {
  %7 = getelementptr inbounds nuw i8, ptr %0, i64 8
  store double %1, ptr %7, align 8, !tbaa !116
  %8 = getelementptr inbounds nuw i8, ptr %0, i64 16
  store double %2, ptr %8, align 8, !tbaa !100
  %9 = getelementptr inbounds nuw i8, ptr %0, i64 24
  store i32 %3, ptr %9, align 8, !tbaa !46
  store ptr getelementptr inbounds nuw inrange(-16, 48) (i8, ptr @_ZTVN6open3d9pipelines11integration18ScalableTSDFVolumeE, i64 16), ptr %0, align 8, !tbaa !24
  %10 = getelementptr inbounds nuw i8, ptr %0, i64 28
  store i32 %4, ptr %10, align 4, !tbaa !99
  %11 = getelementptr inbounds nuw i8, ptr %0, i64 32
  %12 = sitofp i32 %4 to double
  %13 = fmul double %1, %12
  store double %13, ptr %11, align 8, !tbaa !76
  %14 = getelementptr inbounds nuw i8, ptr %0, i64 40
  store i32 %5, ptr %14, align 8, !tbaa !61
  %15 = getelementptr inbounds nuw i8, ptr %0, i64 48
  %16 = getelementptr inbounds nuw i8, ptr %0, i64 96
  store ptr %16, ptr %15, align 8, !tbaa !31
  %17 = getelementptr inbounds nuw i8, ptr %0, i64 56
  store i64 1, ptr %17, align 8, !tbaa !32
  %18 = getelementptr inbounds nuw i8, ptr %0, i64 64
  %19 = getelementptr inbounds nuw i8, ptr %0, i64 80
  tail call void @llvm.memset.p0.i64(ptr noundef nonnull align 8 dereferenceable(16) %18, i8 0, i64 16, i1 false)
  store float 1.000000e+00, ptr %19, align 8, !tbaa !67
  %20 = getelementptr inbounds nuw i8, ptr %0, i64 88
  tail call void @llvm.memset.p0.i64(ptr noundef nonnull align 8 dereferenceable(16) %20, i8 0, i64 16, i1 false)
  ret void
}